target datalayout = "e-m:e-p270:32:32-p271:32:32-p272:64:64-i64:64-i128:128-f80:128-n8:16:32:64-S128"
target triple = "x86_64-pc-linux-gnu"

%struct.tjscalingfactor = type { i32, i32 }
%struct.tjregion = type { i32, i32, i32, i32 }
%struct._tjinstance = type { %struct.jpeg_compress_struct, %struct.jpeg_decompress_struct, %struct.my_error_mgr, i32, [200 x i8], i32, i32, i32, i32, i32, i32, i32, i32, i32, i32, i32, i32, i32, i32, i32, i32, i32, i32, i32, i32, i32, i32, i32, %struct.tjscalingfactor, %struct.tjregion, i32, i32 }
%struct.jpeg_compress_struct = type { ptr, ptr, ptr, ptr, i32, i32, ptr, i32, i32, i32, i32, double, i32, i32, i32, ptr, [4 x ptr], [4 x ptr], [4 x ptr], [16 x i8], [16 x i8], [16 x i8], i32, ptr, i32, i32, i32, i32, i32, i32, i32, i32, i32, i8, i8, i8, i16, i16, i32, i32, i32, i32, i32, i32, i32, [4 x ptr], i32, i32, i32, [10 x i32], i32, i32, i32, i32, ptr, ptr, ptr, ptr, ptr, ptr, ptr, ptr, ptr, ptr, i32 }
%struct.jpeg_decompress_struct = type { ptr, ptr, ptr, ptr, i32, i32, ptr, i32, i32, i32, i32, i32, i32, i32, double, i32, i32, i32, i32, i32, i32, i32, i32, i32, i32, i32, i32, i32, i32, i32, i32, i32, i32, ptr, i32, i32, i32, i32, i32, ptr, [4 x ptr], [4 x ptr], [4 x ptr], i32, ptr, i32, i32, [16 x i8], [16 x i8], [16 x i8], i32, i32, i8, i8, i8, i16, i16, i32, i8, i32, ptr, i32, i32, i32, i32, ptr, i32, [4 x ptr], i32, i32, i32, [10 x i32], i32, i32, i32, i32, i32, ptr, ptr, ptr, ptr, ptr, ptr, ptr, ptr, ptr, ptr, ptr }
%struct.my_error_mgr = type { %struct.jpeg_error_mgr, [1 x %struct.__jmp_buf_tag], ptr, i32, i32 }
%struct.jpeg_error_mgr = type { ptr, ptr, ptr, ptr, ptr, i32, %union.anon, i32, i64, ptr, i32, ptr, i32, i32 }
%union.anon = type { [8 x i32], [48 x i8] }
%struct.__jmp_buf_tag = type { [8 x i64], i32, %struct.__sigset_t }
%struct.__sigset_t = type { [16 x i64] }

@_tjInitDecompress.buffer = internal global [1 x i8] zeroinitializer, align 1

; Function Attrs: nounwind uwtable
define internal ptr @_tjInitDecompress(ptr noundef %0) #0 {
  %2 = alloca ptr, align 8
  %3 = alloca ptr, align 8
  store ptr %0, ptr %3, align 8
  %4 = load ptr, ptr %3, align 8
  %5 = getelementptr inbounds %struct._tjinstance, ptr %4, i32 0, i32 2
  %6 = getelementptr inbounds %struct.my_error_mgr, ptr %5, i32 0, i32 0
  %7 = call ptr @jpeg_std_error(ptr noundef %6)
  %8 = load ptr, ptr %3, align 8
  %9 = getelementptr inbounds %struct._tjinstance, ptr %8, i32 0, i32 1
  %10 = getelementptr inbounds %struct.jpeg_decompress_struct, ptr %9, i32 0, i32 0
  store ptr %7, ptr %10, align 8
  %11 = load ptr, ptr %3, align 8
  %12 = getelementptr inbounds %struct._tjinstance, ptr %11, i32 0, i32 2
  %13 = getelementptr inbounds %struct.my_error_mgr, ptr %12, i32 0, i32 0
  %14 = getelementptr inbounds %struct.jpeg_error_mgr, ptr %13, i32 0, i32 0
  store ptr @my_error_exit, ptr %14, align 8
  %15 = load ptr, ptr %3, align 8
  %16 = getelementptr inbounds %struct._tjinstance, ptr %15, i32 0, i32 2
  %17 = getelementptr inbounds %struct.my_error_mgr, ptr %16, i32 0, i32 0
  %18 = getelementptr inbounds %struct.jpeg_error_mgr, ptr %17, i32 0, i32 2
  store ptr @my_output_message, ptr %18, align 8
  %19 = load ptr, ptr %3, align 8
  %20 = getelementptr inbounds %struct._tjinstance, ptr %19, i32 0, i32 2
  %21 = getelementptr inbounds %struct.my_error_mgr, ptr %20, i32 0, i32 0
  %22 = getelementptr inbounds %struct.jpeg_error_mgr, ptr %21, i32 0, i32 1
  %23 = load ptr, ptr %22, align 8
  %24 = load ptr, ptr %3, align 8
  %25 = getelementptr inbounds %struct._tjinstance, ptr %24, i32 0, i32 2
  %26 = getelementptr inbounds %struct.my_error_mgr, ptr %25, i32 0, i32 2
  store ptr %23, ptr %26, align 8
  %27 = load ptr, ptr %3, align 8
  %28 = getelementptr inbounds %struct._tjinstance, ptr %27, i32 0, i32 2
  %29 = getelementptr inbounds %struct.my_error_mgr, ptr %28, i32 0, i32 0
  %30 = getelementptr inbounds %struct.jpeg_error_mgr, ptr %29, i32 0, i32 1
  store ptr @my_emit_message, ptr %30, align 8
  %31 = load ptr, ptr %3, align 8
  %32 = getelementptr inbounds %struct._tjinstance, ptr %31, i32 0, i32 2
  %33 = getelementptr inbounds %struct.my_error_mgr, ptr %32, i32 0, i32 0
  %34 = getelementptr inbounds %struct.jpeg_error_mgr, ptr %33, i32 0, i32 11
  store ptr @turbojpeg_message_table, ptr %34, align 8
  %35 = load ptr, ptr %3, align 8
  %36 = getelementptr inbounds %struct._tjinstance, ptr %35, i32 0, i32 2
  %37 = getelementptr inbounds %struct.my_error_mgr, ptr %36, i32 0, i32 0
  %38 = getelementptr inbounds %struct.jpeg_error_mgr, ptr %37, i32 0, i32 12
  store i32 1000, ptr %38, align 8
  %39 = load ptr, ptr %3, align 8
  %40 = getelementptr inbounds %struct._tjinstance, ptr %39, i32 0, i32 2
  %41 = getelementptr inbounds %struct.my_error_mgr, ptr %40, i32 0, i32 0
  %42 = getelementptr inbounds %struct.jpeg_error_mgr, ptr %41, i32 0, i32 13
  store i32 1048, ptr %42, align 4
  %43 = load ptr, ptr %3, align 8
  %44 = getelementptr inbounds %struct._tjinstance, ptr %43, i32 0, i32 2
  %45 = getelementptr inbounds %struct.my_error_mgr, ptr %44, i32 0, i32 1
  %46 = getelementptr inbounds [1 x %struct.__jmp_buf_tag], ptr %45, i64 0, i64 0
  %47 = call i32 @_setjmp(ptr noundef %46) #13
  %48 = icmp ne i32 %47, 0
  br i1 %48, label %49, label %51

49:                                               ; preds = %1
  %50 = load ptr, ptr %3, align 8
  call void @free(ptr noundef %50) #11
  store ptr null, ptr %2, align 8
  br label %61

51:                                               ; preds = %1
  %52 = load ptr, ptr %3, align 8
  %53 = getelementptr inbounds %struct._tjinstance, ptr %52, i32 0, i32 1
  call void @jpeg_CreateDecompress(ptr noundef %53, i32 noundef 62, i64 noundef 632)
  %54 = load ptr, ptr %3, align 8
  %55 = getelementptr inbounds %struct._tjinstance, ptr %54, i32 0, i32 1
  call void @jpeg_mem_src_tj(ptr noundef %55, ptr noundef @_tjInitDecompress.buffer, i64 noundef 1)
  %56 = load ptr, ptr %3, align 8
  %57 = getelementptr inbounds %struct._tjinstance, ptr %56, i32 0, i32 3
  %58 = load i32, ptr %57, align 8
  %59 = or i32 %58, 2
  store i32 %59, ptr %57, align 8
  %60 = load ptr, ptr %3, align 8
  store ptr %60, ptr %2, align 8
  br label %61

61:                                               ; preds = %51, %49
  %62 = load ptr, ptr %2, align 8
  ret ptr %62
}