; Function Attrs: nounwind uwtable
define internal fastcc noundef ptr @_tjInitDecompress(ptr noundef %0) unnamed_addr #0 {
  %2 = getelementptr inbounds i8, ptr %0, i64 1152
  %3 = call ptr @jpeg_std_error(ptr noundef nonnull %2) #26
  %4 = getelementptr inbounds i8, ptr %0, i64 520
  store ptr %3, ptr %4, align 8
  store ptr @my_error_exit, ptr %2, align 8
  %5 = getelementptr inbounds i8, ptr %0, i64 1168
  store ptr @my_output_message, ptr %5, align 8
  %6 = getelementptr inbounds i8, ptr %0, i64 1160
  %7 = load ptr, ptr %6, align 8
  %8 = getelementptr inbounds i8, ptr %0, i64 1520
  store ptr %7, ptr %8, align 8
  store ptr @my_emit_message, ptr %6, align 8
  %9 = getelementptr inbounds i8, ptr %0, i64 1304
  store ptr @turbojpeg_message_table, ptr %9, align 8
  %10 = getelementptr inbounds i8, ptr %0, i64 1312
  store i32 1000, ptr %10, align 8
  %11 = getelementptr inbounds i8, ptr %0, i64 1316
  store i32 1048, ptr %11, align 4
  %12 = getelementptr inbounds i8, ptr %0, i64 1320
  %13 = call i32 @_setjmp(ptr noundef nonnull %12) #27
  %.not = icmp eq i32 %13, 0
  br i1 %.not, label %15, label %14

14:                                               ; preds = %1
  call void @free(ptr noundef nonnull %0) #26
  br label %19

15:                                               ; preds = %1
  call void @jpeg_CreateDecompress(ptr noundef nonnull %4, i32 noundef 62, i64 noundef 632) #26
  call void @jpeg_mem_src_tj(ptr noundef nonnull %4, ptr noundef nonnull @_tjInitDecompress.buffer, i64 noundef 1) #26
  %16 = getelementptr inbounds i8, ptr %0, i64 1536
  %17 = load i32, ptr %16, align 8
  %18 = or i32 %17, 2
  store i32 %18, ptr %16, align 8
  br label %19

19:                                               ; preds = %15, %14
  %.0 = phi ptr [ null, %14 ], [ %0, %15 ]
  ret ptr %.0
}